target datalayout = "e-m:e-p270:32:32-p271:32:32-p272:64:64-i64:64-i128:128-f80:128-n8:16:32:64-S128"
target triple = "x86_64-pc-linux-gnu"

%struct.ObjectAddress = type { i32, i32, i32 }

; Function Attrs: nounwind uwtable
define dso_local void @recordDependencyOnTablespace(i32 noundef %0, i32 noundef %1, i32 noundef %2) #0 {
  %4 = alloca i32, align 4
  %5 = alloca i32, align 4
  %6 = alloca i32, align 4
  %7 = alloca %struct.ObjectAddress, align 4
  %8 = alloca %struct.ObjectAddress, align 4
  store i32 %0, ptr %4, align 4
  store i32 %1, ptr %5, align 4
  store i32 %2, ptr %6, align 4
  call void @llvm.lifetime.start.p0(i64 12, ptr %7) #7
  call void @llvm.lifetime.start.p0(i64 12, ptr %8) #7
  br label %9

9:                                                ; preds = %3
  %10 = load i32, ptr %4, align 4
  %11 = getelementptr inbounds nuw %struct.ObjectAddress, ptr %7, i32 0, i32 0
  store i32 %10, ptr %11, align 4
  %12 = load i32, ptr %5, align 4
  %13 = getelementptr inbounds nuw %struct.ObjectAddress, ptr %7, i32 0, i32 1
  store i32 %12, ptr %13, align 4
  %14 = getelementptr inbounds nuw %struct.ObjectAddress, ptr %7, i32 0, i32 2
  store i32 0, ptr %14, align 4
  br label %15

15:                                               ; preds = %9
  br label %16

16:                                               ; preds = %15
  br label %17

17:                                               ; preds = %16
  %18 = getelementptr inbounds nuw %struct.ObjectAddress, ptr %8, i32 0, i32 0
  store i32 1213, ptr %18, align 4
  %19 = load i32, ptr %6, align 4
  %20 = getelementptr inbounds nuw %struct.ObjectAddress, ptr %8, i32 0, i32 1
  store i32 %19, ptr %20, align 4
  %21 = getelementptr inbounds nuw %struct.ObjectAddress, ptr %8, i32 0, i32 2
  store i32 0, ptr %21, align 4
  br label %22

22:                                               ; preds = %17
  br label %23

23:                                               ; preds = %22
  call void @recordSharedDependencyOn(ptr noundef %7, ptr noundef %8, i32 noundef 116)
  call void @llvm.lifetime.end.p0(i64 12, ptr %8) #7
  call void @llvm.lifetime.end.p0(i64 12, ptr %7) #7
  ret void
}