; Function Attrs: nounwind uwtable
define dso_local void @recordDependencyOnTablespace(i32 noundef %0, i32 noundef %1, i32 noundef %2) local_unnamed_addr #0 {
  %4 = alloca %struct.ObjectAddress, align 4
  %5 = alloca %struct.ObjectAddress, align 4
  call void @llvm.lifetime.start.p0(i64 12, ptr nonnull %4) #8
  call void @llvm.lifetime.start.p0(i64 12, ptr nonnull %5) #8
  store i32 %0, ptr %4, align 4
  %6 = getelementptr inbounds nuw i8, ptr %4, i64 4
  store i32 %1, ptr %6, align 4
  %7 = getelementptr inbounds nuw i8, ptr %4, i64 8
  store i32 0, ptr %7, align 4
  store i32 1213, ptr %5, align 4
  %8 = getelementptr inbounds nuw i8, ptr %5, i64 4
  store i32 %2, ptr %8, align 4
  %9 = getelementptr inbounds nuw i8, ptr %5, i64 8
  store i32 0, ptr %9, align 4
  call void @recordSharedDependencyOn(ptr noundef nonnull %4, ptr noundef nonnull %5, i32 noundef 116)
  call void @llvm.lifetime.end.p0(i64 12, ptr nonnull %5) #8
  call void @llvm.lifetime.end.p0(i64 12, ptr nonnull %4) #8
  ret void
}